; Function Attrs: mustprogress nounwind uwtable
define hidden void @_ZN8goal2satD2Ev(ptr noundef nonnull readonly align 8 captures(none) dereferenceable(12) %0) unnamed_addr #5 align 2 personality ptr @__gxx_personality_v0 {
  %2 = load ptr, ptr %0, align 8, !tbaa !3
  %3 = icmp eq ptr %2, null
  br i1 %3, label %_Z7deallocIN8goal2sat3impEEvPT_.exit, label %4

4:                                                ; preds = %1
  %5 = load ptr, ptr %2, align 8, !tbaa !11
  %6 = load ptr, ptr %5, align 8
  tail call void %6(ptr noundef nonnull align 8 dereferenceable(300) %2) #25
  invoke void @_ZN6memory10deallocateEPv(ptr noundef nonnull %2)
          to label %_Z7deallocIN8goal2sat3impEEvPT_.exit unwind label %7

_Z7deallocIN8goal2sat3impEEvPT_.exit:             ; preds = %1, %4
  ret void

7:                                                ; preds = %4
  %8 = landingpad { ptr, i32 }
          catch ptr null
  %9 = extractvalue { ptr, i32 } %8, 0
  tail call void @__clang_call_terminate(ptr %9) #26
  unreachable
}